; Function Attrs: nounwind uwtable
define range(i32 -21, 1) i32 @CVodeSetErrHandlerFn(ptr noundef writeonly captures(address_is_null) %0, ptr noundef %1, ptr noundef %2) local_unnamed_addr #0 {
  %4 = icmp eq ptr %0, null
  br i1 %4, label %5, label %6

5:                                                ; preds = %3
  tail call void (ptr, i32, ptr, ptr, ptr, ...) @cvProcessError(ptr noundef null, i32 noundef -21, ptr noundef nonnull @.str, ptr noundef nonnull @.str.1, ptr noundef nonnull @.str.2) #6
  br label %9

6:                                                ; preds = %3
  %7 = getelementptr inbounds nuw i8, ptr %0, i64 1824
  store ptr %1, ptr %7, align 8, !tbaa !3
  %8 = getelementptr inbounds nuw i8, ptr %0, i64 1832
  store ptr %2, ptr %8, align 8, !tbaa !18
  br label %9

9:                                                ; preds = %6, %5
  %.0 = phi i32 [ -21, %5 ], [ 0, %6 ]
  ret i32 %.0
}